; Function Attrs: mustprogress nofree nounwind memory(readwrite, argmem: none) uwtable
define noalias noundef ptr @_ZN10duckdb_hll15sdsfromlonglongEx(i64 noundef %0) local_unnamed_addr #15 {
  %2 = alloca [21 x i8], align 16
  call void @llvm.lifetime.start.p0(i64 21, ptr nonnull %2) #30
  %3 = tail call i64 @llvm.abs.i64(i64 %0, i1 true)
  br label %4

4:                                                ; preds = %4, %1
  %.024.i = phi ptr [ %2, %1 ], [ %8, %4 ]
  %.023.i = phi i64 [ %3, %1 ], [ %9, %4 ]
  %5 = urem i64 %.023.i, 10
  %6 = trunc nuw nsw i64 %5 to i8
  %7 = or disjoint i8 %6, 48
  %8 = getelementptr inbounds nuw i8, ptr %.024.i, i64 1
  store i8 %7, ptr %.024.i, align 1, !tbaa !20
  %9 = udiv i64 %.023.i, 10
  %.not.i = icmp samesign ult i64 %.023.i, 10
  br i1 %.not.i, label %10, label %4, !llvm.loop !21

10:                                               ; preds = %4
  %11 = icmp slt i64 %0, 0
  br i1 %11, label %12, label %14

12:                                               ; preds = %10
  %13 = getelementptr inbounds nuw i8, ptr %.024.i, i64 2
  store i8 45, ptr %8, align 1, !tbaa !20
  br label %14

14:                                               ; preds = %12, %10
  %.1.i = phi ptr [ %13, %12 ], [ %8, %10 ]
  store i8 0, ptr %.1.i, align 1, !tbaa !20
  %.225.i = getelementptr inbounds i8, ptr %.1.i, i64 -1
  %15 = icmp ult ptr %2, %.225.i
  br i1 %15, label %.lr.ph.i, label %_ZN10duckdb_hll9sdsll2strEPcx.exit

.lr.ph.i:                                         ; preds = %14, %.lr.ph.i
  %.227.i = phi ptr [ %.2.i, %.lr.ph.i ], [ %.225.i, %14 ]
  %.026.i = phi ptr [ %18, %.lr.ph.i ], [ %2, %14 ]
  %16 = load i8, ptr %.026.i, align 1, !tbaa !20
  %17 = load i8, ptr %.227.i, align 1, !tbaa !20
  store i8 %17, ptr %.026.i, align 1, !tbaa !20
  store i8 %16, ptr %.227.i, align 1, !tbaa !20
  %18 = getelementptr inbounds nuw i8, ptr %.026.i, i64 1
  %.2.i = getelementptr inbounds i8, ptr %.227.i, i64 -1
  %19 = icmp ult ptr %18, %.2.i
  br i1 %19, label %.lr.ph.i, label %_ZN10duckdb_hll9sdsll2strEPcx.exit, !llvm.loop !23

_ZN10duckdb_hll9sdsll2strEPcx.exit:               ; preds = %.lr.ph.i, %14
  %20 = ptrtoint ptr %.1.i to i64
  %21 = ptrtoint ptr %2 to i64
  %22 = sub i64 %20, %21
  %23 = trunc i64 %22 to i32
  %sext = shl i64 %22, 32
  %24 = ashr exact i64 %sext, 32
  %25 = icmp ult i64 %24, 32
  br i1 %25, label %_ZN10duckdb_hllL10sdsReqTypeEm.exit.i, label %26

26:                                               ; preds = %_ZN10duckdb_hll9sdsll2strEPcx.exit
  %27 = icmp ult i64 %24, 256
  br i1 %27, label %_ZN10duckdb_hllL10sdsReqTypeEm.exit.i, label %28

28:                                               ; preds = %26
  %29 = icmp ult i64 %24, 65536
  br i1 %29, label %_ZN10duckdb_hllL10sdsReqTypeEm.exit.i, label %30

30:                                               ; preds = %28
  %31 = icmp ult i64 %24, 4294967296
  %..i.i = select i1 %31, i8 3, i8 4
  br label %_ZN10duckdb_hllL10sdsReqTypeEm.exit.i

_ZN10duckdb_hllL10sdsReqTypeEm.exit.i:            ; preds = %30, %28, %26, %_ZN10duckdb_hll9sdsll2strEPcx.exit
  %.0.i.i = phi i8 [ 0, %_ZN10duckdb_hll9sdsll2strEPcx.exit ], [ 1, %26 ], [ 2, %28 ], [ %..i.i, %30 ]
  %32 = icmp eq i8 %.0.i.i, 0
  %33 = icmp eq i64 %sext, 0
  %or.cond.i = and i1 %33, %32
  %spec.store.select.i = select i1 %or.cond.i, i8 1, i8 %.0.i.i
  %34 = zext nneg i8 %spec.store.select.i to i64
  %switch.gep = getelementptr inbounds nuw [5 x i64], ptr @switch.table._ZN10duckdb_hll11sdssplitlenEPKclS1_iPi.2, i64 0, i64 %34
  %switch.load = load i64, ptr %switch.gep, align 8
  %35 = add nsw i64 %24, 1
  %36 = add nsw i64 %35, %switch.load
  %37 = call noalias ptr @malloc(i64 noundef %36) #28
  %38 = icmp eq ptr %37, null
  br i1 %38, label %_ZN10duckdb_hll9sdsnewlenEPKvm.exit, label %39

default.unreachable:                              ; preds = %39
  unreachable

39:                                               ; preds = %_ZN10duckdb_hllL10sdsReqTypeEm.exit.i
  %40 = getelementptr inbounds nuw i8, ptr %37, i64 %switch.load
  %41 = getelementptr inbounds i8, ptr %40, i64 -1
  switch i8 %spec.store.select.i, label %default.unreachable [
    i8 0, label %42
    i8 1, label %44
    i8 2, label %48
    i8 3, label %52
    i8 4, label %55
  ]

42:                                               ; preds = %39
  %.tr.i = trunc i64 %22 to i8
  %43 = shl i8 %.tr.i, 3
  br label %58

44:                                               ; preds = %39
  %45 = getelementptr inbounds i8, ptr %40, i64 -4
  %46 = trunc i64 %22 to i8
  store i8 %46, ptr %45, align 1, !tbaa !3
  %47 = getelementptr inbounds i8, ptr %40, i64 -3
  store i8 %46, ptr %47, align 1, !tbaa !7
  br label %58

48:                                               ; preds = %39
  %49 = getelementptr inbounds i8, ptr %40, i64 -6
  %50 = trunc i64 %22 to i16
  store i16 %50, ptr %49, align 1, !tbaa !8
  %51 = getelementptr inbounds i8, ptr %40, i64 -4
  store i16 %50, ptr %51, align 1, !tbaa !11
  br label %58

52:                                               ; preds = %39
  %53 = getelementptr inbounds i8, ptr %40, i64 -10
  store i32 %23, ptr %53, align 1, !tbaa !12
  %54 = getelementptr inbounds i8, ptr %40, i64 -6
  store i32 %23, ptr %54, align 1, !tbaa !15
  br label %58

55:                                               ; preds = %39
  %56 = getelementptr inbounds i8, ptr %40, i64 -18
  store i64 %24, ptr %56, align 1, !tbaa !16
  %57 = getelementptr inbounds i8, ptr %40, i64 -10
  store i64 %24, ptr %57, align 1, !tbaa !19
  br label %58

58:                                               ; preds = %55, %52, %48, %44, %42
  %.sink.i = phi i8 [ 4, %55 ], [ 3, %52 ], [ 2, %48 ], [ 1, %44 ], [ %43, %42 ]
  store i8 %.sink.i, ptr %41, align 1, !tbaa !20
  br i1 %33, label %60, label %59

59:                                               ; preds = %58
  call void @llvm.memcpy.p0.p0.i64(ptr nonnull align 1 %40, ptr nonnull readonly align 16 %2, i64 %24, i1 false)
  br label %60

60:                                               ; preds = %59, %58
  %61 = getelementptr inbounds nuw i8, ptr %40, i64 %24
  store i8 0, ptr %61, align 1, !tbaa !20
  br label %_ZN10duckdb_hll9sdsnewlenEPKvm.exit

_ZN10duckdb_hll9sdsnewlenEPKvm.exit:              ; preds = %_ZN10duckdb_hllL10sdsReqTypeEm.exit.i, %60
  %.0.i = phi ptr [ %40, %60 ], [ null, %_ZN10duckdb_hllL10sdsReqTypeEm.exit.i ]
  call void @llvm.lifetime.end.p0(i64 21, ptr nonnull %2) #30
  ret ptr %.0.i
}